target datalayout = "e-m:e-p270:32:32-p271:32:32-p272:64:64-i64:64-i128:128-f80:128-n8:16:32:64-S128"
target triple = "x86_64-pc-linux-gnu"

%struct.AVFilterContext = type { ptr, ptr, ptr, ptr, ptr, i32, ptr, ptr, i32, ptr, ptr, i32, i32, ptr, ptr, ptr, ptr, i32, ptr, i32, i32 }
%struct.ExtractPlanesContext = type { ptr, i32, [4 x i32], [4 x i32], i32, i32, i32 }
%struct.AVFilterLink = type { ptr, ptr, ptr, ptr, i32, i32, i32, i32, %struct.AVRational, i32, i32, i32, %struct.AVChannelLayout, %struct.AVRational, ptr, i32, %struct.AVFilterFormatsConfig, %struct.AVFilterFormatsConfig }
%struct.AVChannelLayout = type { i32, i32, %union.anon.1, ptr }
%union.anon.1 = type { i64 }
%struct.AVRational = type { i32, i32 }
%struct.AVFilterFormatsConfig = type { ptr, ptr, ptr, ptr, ptr }
%struct.AVPixFmtDescriptor = type { ptr, i8, i8, i8, i64, [4 x %struct.AVComponentDescriptor], ptr }
%struct.AVComponentDescriptor = type { i32, i32, i32, i32, i32 }

@.str.5 = private unnamed_addr constant [33 x i8] c"Requested planes not available.\0A\00", align 1

; Function Attrs: nounwind uwtable
define internal i32 @config_input(ptr noundef %0) #1 {
  %2 = alloca i32, align 4
  %3 = alloca ptr, align 8
  %4 = alloca ptr, align 8
  %5 = alloca ptr, align 8
  %6 = alloca ptr, align 8
  %7 = alloca i32, align 4
  %8 = alloca i32, align 4
  %9 = alloca i32, align 4
  %10 = alloca [4 x i8], align 1
  %11 = alloca i32, align 4
  store ptr %0, ptr %3, align 8, !tbaa !36
  call void @llvm.lifetime.start.p0(i64 8, ptr %4) #7
  %12 = load ptr, ptr %3, align 8, !tbaa !36
  %13 = getelementptr inbounds nuw %struct.AVFilterLink, ptr %12, i32 0, i32 2
  %14 = load ptr, ptr %13, align 8, !tbaa !74
  store ptr %14, ptr %4, align 8, !tbaa !4
  call void @llvm.lifetime.start.p0(i64 8, ptr %5) #7
  %15 = load ptr, ptr %4, align 8, !tbaa !4
  %16 = getelementptr inbounds nuw %struct.AVFilterContext, ptr %15, i32 0, i32 9
  %17 = load ptr, ptr %16, align 8, !tbaa !9
  store ptr %17, ptr %5, align 8, !tbaa !22
  call void @llvm.lifetime.start.p0(i64 8, ptr %6) #7
  %18 = load ptr, ptr %3, align 8, !tbaa !36
  %19 = getelementptr inbounds nuw %struct.AVFilterLink, ptr %18, i32 0, i32 5
  %20 = load i32, ptr %19, align 4, !tbaa !75
  %21 = call ptr @av_pix_fmt_desc_get(i32 noundef %20)
  store ptr %21, ptr %6, align 8, !tbaa !53
  call void @llvm.lifetime.start.p0(i64 4, ptr %7) #7
  call void @llvm.lifetime.start.p0(i64 4, ptr %8) #7
  call void @llvm.lifetime.start.p0(i64 4, ptr %9) #7
  call void @llvm.lifetime.start.p0(i64 4, ptr %10) #7
  %22 = load ptr, ptr %6, align 8, !tbaa !53
  %23 = getelementptr inbounds nuw %struct.AVPixFmtDescriptor, ptr %22, i32 0, i32 4
  %24 = load i64, ptr %23, align 8, !tbaa !57
  %25 = and i64 %24, 32
  %26 = icmp ne i64 %25, 0
  br i1 %26, label %27, label %28

27:                                               ; preds = %1
  br label %36

28:                                               ; preds = %1
  %29 = load ptr, ptr %6, align 8, !tbaa !53
  %30 = getelementptr inbounds nuw %struct.AVPixFmtDescriptor, ptr %29, i32 0, i32 1
  %31 = load i8, ptr %30, align 8, !tbaa !76
  %32 = zext i8 %31 to i32
  %33 = icmp sgt i32 %32, 2
  %34 = select i1 %33, i32 96, i32 0
  %35 = or i32 16, %34
  br label %36

36:                                               ; preds = %28, %27
  %37 = phi i32 [ 7, %27 ], [ %35, %28 ]
  %38 = load ptr, ptr %6, align 8, !tbaa !53
  %39 = getelementptr inbounds nuw %struct.AVPixFmtDescriptor, ptr %38, i32 0, i32 4
  %40 = load i64, ptr %39, align 8, !tbaa !57
  %41 = and i64 %40, 128
  %42 = icmp ne i64 %41, 0
  %43 = select i1 %42, i32 8, i32 0
  %44 = or i32 %37, %43
  store i32 %44, ptr %7, align 4, !tbaa !26
  %45 = load ptr, ptr %5, align 8, !tbaa !22
  %46 = getelementptr inbounds nuw %struct.ExtractPlanesContext, ptr %45, i32 0, i32 1
  %47 = load i32, ptr %46, align 8, !tbaa !24
  %48 = load i32, ptr %7, align 4, !tbaa !26
  %49 = xor i32 %48, -1
  %50 = and i32 %47, %49
  %51 = icmp ne i32 %50, 0
  br i1 %51, label %52, label %54

52:                                               ; preds = %36
  %53 = load ptr, ptr %4, align 8, !tbaa !4
  call void (ptr, i32, ptr, ...) @av_log(ptr noundef %53, i32 noundef 16, ptr noundef @.str.5)
  store i32 -22, ptr %2, align 4
  store i32 1, ptr %11, align 4
  br label %133

54:                                               ; preds = %36
  %55 = load ptr, ptr %5, align 8, !tbaa !22
  %56 = getelementptr inbounds nuw %struct.ExtractPlanesContext, ptr %55, i32 0, i32 3
  %57 = getelementptr inbounds [4 x i32], ptr %56, i64 0, i64 0
  %58 = load ptr, ptr %3, align 8, !tbaa !36
  %59 = getelementptr inbounds nuw %struct.AVFilterLink, ptr %58, i32 0, i32 5
  %60 = load i32, ptr %59, align 4, !tbaa !75
  %61 = load ptr, ptr %3, align 8, !tbaa !36
  %62 = getelementptr inbounds nuw %struct.AVFilterLink, ptr %61, i32 0, i32 6
  %63 = load i32, ptr %62, align 8, !tbaa !77
  %64 = call i32 @av_image_fill_linesizes(ptr noundef %57, i32 noundef %60, i32 noundef %63)
  store i32 %64, ptr %8, align 4, !tbaa !26
  %65 = icmp slt i32 %64, 0
  br i1 %65, label %66, label %68

66:                                               ; preds = %54
  %67 = load i32, ptr %8, align 4, !tbaa !26
  store i32 %67, ptr %2, align 4
  store i32 1, ptr %11, align 4
  br label %133

68:                                               ; preds = %54
  %69 = load ptr, ptr %6, align 8, !tbaa !53
  %70 = getelementptr inbounds nuw %struct.AVPixFmtDescriptor, ptr %69, i32 0, i32 5
  %71 = getelementptr inbounds [4 x %struct.AVComponentDescriptor], ptr %70, i64 0, i64 0
  %72 = getelementptr inbounds nuw %struct.AVComponentDescriptor, ptr %71, i32 0, i32 4
  %73 = load i32, ptr %72, align 8, !tbaa !55
  %74 = ashr i32 %73, 3
  %75 = load ptr, ptr %5, align 8, !tbaa !22
  %76 = getelementptr inbounds nuw %struct.ExtractPlanesContext, ptr %75, i32 0, i32 5
  store i32 %74, ptr %76, align 8, !tbaa !78
  %77 = load ptr, ptr %6, align 8, !tbaa !53
  %78 = call i32 @av_get_padded_bits_per_pixel(ptr noundef %77)
  %79 = ashr i32 %78, 3
  %80 = load ptr, ptr %5, align 8, !tbaa !22
  %81 = getelementptr inbounds nuw %struct.ExtractPlanesContext, ptr %80, i32 0, i32 6
  store i32 %79, ptr %81, align 4, !tbaa !79
  %82 = load ptr, ptr %6, align 8, !tbaa !53
  %83 = getelementptr inbounds nuw %struct.AVPixFmtDescriptor, ptr %82, i32 0, i32 4
  %84 = load i64, ptr %83, align 8, !tbaa !57
  %85 = and i64 %84, 16
  %86 = icmp ne i64 %85, 0
  br i1 %86, label %93, label %87

87:                                               ; preds = %68
  %88 = load ptr, ptr %6, align 8, !tbaa !53
  %89 = getelementptr inbounds nuw %struct.AVPixFmtDescriptor, ptr %88, i32 0, i32 1
  %90 = load i8, ptr %89, align 8, !tbaa !76
  %91 = zext i8 %90 to i32
  %92 = icmp sgt i32 %91, 1
  br label %93

93:                                               ; preds = %87, %68
  %94 = phi i1 [ false, %68 ], [ %92, %87 ]
  %95 = zext i1 %94 to i32
  %96 = load ptr, ptr %5, align 8, !tbaa !22
  %97 = getelementptr inbounds nuw %struct.ExtractPlanesContext, ptr %96, i32 0, i32 4
  store i32 %95, ptr %97, align 4, !tbaa !80
  %98 = load ptr, ptr %6, align 8, !tbaa !53
  %99 = getelementptr inbounds nuw %struct.AVPixFmtDescriptor, ptr %98, i32 0, i32 4
  %100 = load i64, ptr %99, align 8, !tbaa !57
  %101 = and i64 %100, 32
  %102 = icmp ne i64 %101, 0
  br i1 %102, label %103, label %132

103:                                              ; preds = %93
  %104 = getelementptr inbounds [4 x i8], ptr %10, i64 0, i64 0
  %105 = load ptr, ptr %3, align 8, !tbaa !36
  %106 = getelementptr inbounds nuw %struct.AVFilterLink, ptr %105, i32 0, i32 5
  %107 = load i32, ptr %106, align 4, !tbaa !75
  %108 = call i32 @ff_fill_rgba_map(ptr noundef %104, i32 noundef %107)
  store i32 0, ptr %9, align 4, !tbaa !26
  br label %109

109:                                              ; preds = %128, %103
  %110 = load i32, ptr %9, align 4, !tbaa !26
  %111 = icmp slt i32 %110, 4
  br i1 %111, label %112, label %131

112:                                              ; preds = %109
  %113 = load ptr, ptr %5, align 8, !tbaa !22
  %114 = getelementptr inbounds nuw %struct.ExtractPlanesContext, ptr %113, i32 0, i32 2
  %115 = load i32, ptr %9, align 4, !tbaa !26
  %116 = sext i32 %115 to i64
  %117 = getelementptr inbounds [4 x i32], ptr %114, i64 0, i64 %116
  %118 = load i32, ptr %117, align 4, !tbaa !26
  %119 = sext i32 %118 to i64
  %120 = getelementptr inbounds [4 x i8], ptr %10, i64 0, i64 %119
  %121 = load i8, ptr %120, align 1, !tbaa !81
  %122 = zext i8 %121 to i32
  %123 = load ptr, ptr %5, align 8, !tbaa !22
  %124 = getelementptr inbounds nuw %struct.ExtractPlanesContext, ptr %123, i32 0, i32 2
  %125 = load i32, ptr %9, align 4, !tbaa !26
  %126 = sext i32 %125 to i64
  %127 = getelementptr inbounds [4 x i32], ptr %124, i64 0, i64 %126
  store i32 %122, ptr %127, align 4, !tbaa !26
  br label %128

128:                                              ; preds = %112
  %129 = load i32, ptr %9, align 4, !tbaa !26
  %130 = add nsw i32 %129, 1
  store i32 %130, ptr %9, align 4, !tbaa !26
  br label %109, !llvm.loop !82

131:                                              ; preds = %109
  br label %132

132:                                              ; preds = %131, %93
  store i32 0, ptr %2, align 4
  store i32 1, ptr %11, align 4
  br label %133

133:                                              ; preds = %132, %66, %52
  call void @llvm.lifetime.end.p0(i64 4, ptr %10) #7
  call void @llvm.lifetime.end.p0(i64 4, ptr %9) #7
  call void @llvm.lifetime.end.p0(i64 4, ptr %8) #7
  call void @llvm.lifetime.end.p0(i64 4, ptr %7) #7
  call void @llvm.lifetime.end.p0(i64 8, ptr %6) #7
  call void @llvm.lifetime.end.p0(i64 8, ptr %5) #7
  call void @llvm.lifetime.end.p0(i64 8, ptr %4) #7
  %134 = load i32, ptr %2, align 4
  ret i32 %134
}