; Function Attrs: nounwind uwtable
define internal range(i32 -2147483648, 1) i32 @config_input(ptr noundef readonly captures(none) %0) #1 {
  %2 = alloca [4 x i8], align 1
  %3 = getelementptr inbounds nuw i8, ptr %0, i64 16
  %4 = load ptr, ptr %3, align 8, !tbaa !85
  %5 = getelementptr inbounds nuw i8, ptr %4, i64 72
  %6 = load ptr, ptr %5, align 8, !tbaa !4
  %7 = getelementptr inbounds nuw i8, ptr %0, i64 36
  %8 = load i32, ptr %7, align 4, !tbaa !86
  %9 = tail call ptr @av_pix_fmt_desc_get(i32 noundef %8) #6
  call void @llvm.lifetime.start.p0(i64 4, ptr nonnull %2) #6
  %10 = getelementptr inbounds nuw i8, ptr %9, i64 16
  %11 = load i64, ptr %10, align 8, !tbaa !50
  %12 = and i64 %11, 32
  %.not = icmp eq i64 %12, 0
  br i1 %.not, label %13, label %18

13:                                               ; preds = %1
  %14 = getelementptr inbounds nuw i8, ptr %9, i64 8
  %15 = load i8, ptr %14, align 8, !tbaa !87
  %16 = icmp ugt i8 %15, 2
  %17 = select i1 %16, i32 112, i32 16
  br label %18

18:                                               ; preds = %1, %13
  %19 = phi i32 [ %17, %13 ], [ 7, %1 ]
  %20 = trunc i64 %11 to i32
  %21 = lshr i32 %20, 4
  %22 = and i32 %21, 8
  %23 = or disjoint i32 %19, %22
  %24 = getelementptr inbounds nuw i8, ptr %6, i64 8
  %25 = load i32, ptr %24, align 8, !tbaa !20
  %26 = xor i32 %23, -1
  %27 = and i32 %25, %26
  %.not31 = icmp eq i32 %27, 0
  br i1 %.not31, label %29, label %28

28:                                               ; preds = %18
  tail call void (ptr, i32, ptr, ...) @av_log(ptr noundef nonnull %4, i32 noundef 16, ptr noundef nonnull @.str.5) #6
  br label %.loopexit

29:                                               ; preds = %18
  %30 = getelementptr inbounds nuw i8, ptr %6, i64 28
  %31 = load i32, ptr %7, align 4, !tbaa !86
  %32 = getelementptr inbounds nuw i8, ptr %0, i64 40
  %33 = load i32, ptr %32, align 8, !tbaa !65
  %34 = tail call i32 @av_image_fill_linesizes(ptr noundef nonnull %30, i32 noundef %31, i32 noundef %33) #6
  %35 = icmp slt i32 %34, 0
  br i1 %35, label %.loopexit, label %36

36:                                               ; preds = %29
  %37 = getelementptr inbounds nuw i8, ptr %9, i64 40
  %38 = load i32, ptr %37, align 8, !tbaa !48
  %39 = ashr i32 %38, 3
  %40 = getelementptr inbounds nuw i8, ptr %6, i64 48
  store i32 %39, ptr %40, align 8, !tbaa !75
  %41 = tail call i32 @av_get_padded_bits_per_pixel(ptr noundef nonnull %9) #6
  %42 = ashr i32 %41, 3
  %43 = getelementptr inbounds nuw i8, ptr %6, i64 52
  store i32 %42, ptr %43, align 4, !tbaa !74
  %44 = load i64, ptr %10, align 8, !tbaa !50
  %45 = and i64 %44, 16
  %.not32 = icmp eq i64 %45, 0
  br i1 %.not32, label %46, label %51

46:                                               ; preds = %36
  %47 = getelementptr inbounds nuw i8, ptr %9, i64 8
  %48 = load i8, ptr %47, align 8, !tbaa !87
  %49 = icmp ugt i8 %48, 1
  %50 = zext i1 %49 to i32
  br label %51

51:                                               ; preds = %46, %36
  %52 = phi i32 [ 0, %36 ], [ %50, %46 ]
  %53 = getelementptr inbounds nuw i8, ptr %6, i64 44
  store i32 %52, ptr %53, align 4, !tbaa !72
  %54 = and i64 %44, 32
  %.not33 = icmp eq i64 %54, 0
  br i1 %.not33, label %.loopexit, label %55

55:                                               ; preds = %51
  %56 = load i32, ptr %7, align 4, !tbaa !86
  %57 = call i32 @ff_fill_rgba_map(ptr noundef nonnull %2, i32 noundef %56) #6
  %58 = getelementptr inbounds nuw i8, ptr %6, i64 12
  br label %59

59:                                               ; preds = %55, %59
  %indvars.iv = phi i64 [ 0, %55 ], [ %indvars.iv.next, %59 ]
  %60 = getelementptr inbounds nuw [4 x i32], ptr %58, i64 0, i64 %indvars.iv
  %61 = load i32, ptr %60, align 4, !tbaa !23
  %62 = sext i32 %61 to i64
  %63 = getelementptr inbounds [4 x i8], ptr %2, i64 0, i64 %62
  %64 = load i8, ptr %63, align 1, !tbaa !76
  %65 = zext i8 %64 to i32
  store i32 %65, ptr %60, align 4, !tbaa !23
  %indvars.iv.next = add nuw nsw i64 %indvars.iv, 1
  %exitcond.not = icmp eq i64 %indvars.iv.next, 4
  br i1 %exitcond.not, label %.loopexit, label %59, !llvm.loop !88

.loopexit:                                        ; preds = %59, %51, %29, %28
  %.028 = phi i32 [ -22, %28 ], [ %34, %29 ], [ 0, %51 ], [ 0, %59 ]
  call void @llvm.lifetime.end.p0(i64 4, ptr nonnull %2) #6
  ret i32 %.028
}